; Function Attrs: mustprogress nounwind uwtable
define noundef nonnull align 8 dereferenceable(16) ptr @_ZN2cv9SparseMataSERKS0_(ptr noundef nonnull returned align 8 dereferenceable(16) %0, ptr noundef nonnull readonly align 8 dereferenceable(16) %1) local_unnamed_addr #4 align 2 personality ptr @__gxx_personality_v0 {
  %.not = icmp eq ptr %0, %1
  br i1 %.not, label %26, label %3

3:                                                ; preds = %2
  %4 = getelementptr inbounds nuw i8, ptr %1, i64 8
  %5 = load ptr, ptr %4, align 8, !tbaa !36
  %.not8 = icmp eq ptr %5, null
  br i1 %.not8, label %8, label %6

6:                                                ; preds = %3
  %7 = atomicrmw add ptr %5, i32 1 acq_rel, align 8
  br label %8

8:                                                ; preds = %6, %3
  %9 = getelementptr inbounds nuw i8, ptr %0, i64 8
  %10 = load ptr, ptr %9, align 8, !tbaa !36
  %.not.i = icmp eq ptr %10, null
  br i1 %.not.i, label %_ZN2cv9SparseMat7releaseEv.exit, label %11

11:                                               ; preds = %8
  %12 = atomicrmw add ptr %10, i32 -1 acq_rel, align 8
  %13 = icmp eq i32 %12, 1
  br i1 %13, label %14, label %_ZN2cv9SparseMat7releaseEv.exit

14:                                               ; preds = %11
  %15 = load ptr, ptr %9, align 8, !tbaa !36
  %16 = icmp eq ptr %15, null
  br i1 %16, label %_ZN2cv9SparseMat7releaseEv.exit, label %17

17:                                               ; preds = %14
  %18 = getelementptr inbounds nuw i8, ptr %15, i64 64
  %19 = load ptr, ptr %18, align 8, !tbaa !26
  %.not.i.i.i.i.i = icmp eq ptr %19, null
  br i1 %.not.i.i.i.i.i, label %_ZNSt6vectorImSaImEED2Ev.exit.i.i, label %20

20:                                               ; preds = %17
  tail call void @_ZdlPv(ptr noundef nonnull %19) #24
  br label %_ZNSt6vectorImSaImEED2Ev.exit.i.i

_ZNSt6vectorImSaImEED2Ev.exit.i.i:                ; preds = %20, %17
  %21 = getelementptr inbounds nuw i8, ptr %15, i64 40
  %22 = load ptr, ptr %21, align 8, !tbaa !29
  %.not.i.i.i1.i.i = icmp eq ptr %22, null
  br i1 %.not.i.i.i1.i.i, label %_ZN2cv9SparseMat3HdrD2Ev.exit.i, label %23

23:                                               ; preds = %_ZNSt6vectorImSaImEED2Ev.exit.i.i
  tail call void @_ZdlPv(ptr noundef nonnull %22) #24
  br label %_ZN2cv9SparseMat3HdrD2Ev.exit.i

_ZN2cv9SparseMat3HdrD2Ev.exit.i:                  ; preds = %23, %_ZNSt6vectorImSaImEED2Ev.exit.i.i
  tail call void @_ZdlPv(ptr noundef nonnull %15) #24
  br label %_ZN2cv9SparseMat7releaseEv.exit

_ZN2cv9SparseMat7releaseEv.exit:                  ; preds = %8, %11, %14, %_ZN2cv9SparseMat3HdrD2Ev.exit.i
  store ptr null, ptr %9, align 8, !tbaa !36
  %24 = load i32, ptr %1, align 8, !tbaa !33
  store i32 %24, ptr %0, align 8, !tbaa !33
  %25 = load ptr, ptr %4, align 8, !tbaa !36
  store ptr %25, ptr %9, align 8, !tbaa !36
  br label %26

26:                                               ; preds = %_ZN2cv9SparseMat7releaseEv.exit, %2
  ret ptr %0
}